; Function Attrs: mustprogress uwtable
define void @_ZNK32pxrInternal_v0_24__pxrReserved__16UsdSkelAnimQuery7GetPrimEv(ptr dead_on_unwind noalias writable sret(%"class.pxrInternal_v0_24__pxrReserved__::UsdPrim") align 8 %0, ptr nocapture noundef nonnull readonly align 8 dereferenceable(8) %1) local_unnamed_addr #0 align 2 {
  %3 = load ptr, ptr %1, align 8
  %.not.i = icmp eq ptr %3, null
  br i1 %.not.i, label %7, label %_ZNK32pxrInternal_v0_24__pxrReserved__8TfRefPtrINS_21UsdSkel_AnimQueryImplEEptEv.exit

_ZNK32pxrInternal_v0_24__pxrReserved__8TfRefPtrINS_21UsdSkel_AnimQueryImplEEptEv.exit: ; preds = %2
  %4 = load ptr, ptr %3, align 8
  %5 = getelementptr inbounds i8, ptr %4, i64 16
  %6 = load ptr, ptr %5, align 8
  tail call void %6(ptr dead_on_unwind writable sret(%"class.pxrInternal_v0_24__pxrReserved__::UsdPrim") align 8 %0, ptr noundef nonnull align 8 dereferenceable(96) %3)
  br label %9

7:                                                ; preds = %2
  store i32 1, ptr %0, align 8
  %8 = getelementptr inbounds nuw i8, ptr %0, i64 8
  tail call void @llvm.memset.p0.i64(ptr noundef nonnull align 8 dereferenceable(24) %8, i8 0, i64 24, i1 false)
  br label %9

9:                                                ; preds = %7, %_ZNK32pxrInternal_v0_24__pxrReserved__8TfRefPtrINS_21UsdSkel_AnimQueryImplEEptEv.exit
  ret void
}